target datalayout = "e-m:e-p270:32:32-p271:32:32-p272:64:64-i64:64-i128:128-f80:128-n8:16:32:64-S128"
target triple = "x86_64-pc-linux-gnu"

%struct._packet_info = type { ptr, ptr, i32, i32, %struct.nstime_t, %struct.nstime_t, %struct.nstime_t, i8, ptr, ptr, ptr, ptr, %struct._address, %struct._address, %struct._address, %struct._address, %struct._address, %struct._address, i32, ptr, i8, [3 x i8], %struct.anon, i32, i32, i32, i32, ptr, i8, ptr, ptr, i16, i16, i32, i32, i16, i32, i32, ptr, ptr, ptr, i8, i8, i16, i16, i16, i32, i16, i16, ptr, ptr, ptr, ptr, ptr, i32, i32 }
%struct.nstime_t = type { i64, i32 }
%struct._address = type { i32, i32, ptr, ptr }
%struct.anon = type { i8, [3 x i8] }

@hf_giop_repoid = internal global i32 0, align 4
@hf_giop_typecode_count = internal global i32 0, align 4
@hf_giop_typecode_member_name = internal global i32 0, align 4
@hf_giop_typecode_name = internal global i32 0, align 4

; Function Attrs: null_pointer_is_valid sspstrong uwtable
define i32 @get_CDR_ulong(ptr noundef %0, ptr noundef %1, i1 noundef zeroext %2, i32 noundef %3) #0 {
  %5 = alloca ptr, align 8
  %6 = alloca ptr, align 8
  %7 = alloca i8, align 1
  %8 = alloca i32, align 4
  %9 = alloca i32, align 4
  store ptr %0, ptr %5, align 8
  store ptr %1, ptr %6, align 8
  %10 = zext i1 %2 to i8
  store i8 %10, ptr %7, align 1
  store i32 %3, ptr %8, align 4
  call void @llvm.lifetime.start.p0(i64 4, ptr %9) #14
  br label %11

11:                                               ; preds = %18, %4
  %12 = load ptr, ptr %6, align 8
  %13 = load i32, ptr %12, align 4
  %14 = load i32, ptr %8, align 4
  %15 = add i32 %13, %14
  %16 = srem i32 %15, 4
  %17 = icmp ne i32 %16, 0
  br i1 %17, label %18, label %22

18:                                               ; preds = %11
  %19 = load ptr, ptr %6, align 8
  %20 = load i32, ptr %19, align 4
  %21 = add i32 %20, 1
  store i32 %21, ptr %19, align 4
  br label %11, !llvm.loop !10

22:                                               ; preds = %11
  %23 = load i8, ptr %7, align 1, !range !8, !noundef !9
  %24 = trunc i8 %23 to i1
  br i1 %24, label %25, label %30

25:                                               ; preds = %22
  %26 = load ptr, ptr %5, align 8
  %27 = load ptr, ptr %6, align 8
  %28 = load i32, ptr %27, align 4
  %29 = call i32 @tvb_get_ntohl(ptr noundef %26, i32 noundef %28)
  br label %35

30:                                               ; preds = %22
  %31 = load ptr, ptr %5, align 8
  %32 = load ptr, ptr %6, align 8
  %33 = load i32, ptr %32, align 4
  %34 = call i32 @tvb_get_letohl(ptr noundef %31, i32 noundef %33)
  br label %35

35:                                               ; preds = %30, %25
  %36 = phi i32 [ %29, %25 ], [ %34, %30 ]
  store i32 %36, ptr %9, align 4
  %37 = load ptr, ptr %6, align 8
  %38 = load i32, ptr %37, align 4
  %39 = add i32 %38, 4
  store i32 %39, ptr %37, align 4
  %40 = load i32, ptr %9, align 4
  call void @llvm.lifetime.end.p0(i64 4, ptr %9) #14
  ret i32 %40
}

; Function Attrs: null_pointer_is_valid sspstrong uwtable
define internal void @dissect_tk_struct_params(ptr noundef %0, ptr noundef %1, ptr noundef %2, ptr noundef %3, i1 noundef zeroext %4, i32 noundef %5, ptr noundef %6, ptr noundef %7) #0 {
  %9 = alloca ptr, align 8
  %10 = alloca ptr, align 8
  %11 = alloca ptr, align 8
  %12 = alloca ptr, align 8
  %13 = alloca i8, align 1
  %14 = alloca i32, align 4
  %15 = alloca ptr, align 8
  %16 = alloca ptr, align 8
  %17 = alloca i32, align 4
  %18 = alloca i8, align 1
  %19 = alloca ptr, align 8
  %20 = alloca i32, align 4
  %21 = alloca ptr, align 8
  %22 = alloca ptr, align 8
  %23 = alloca ptr, align 8
  store ptr %0, ptr %9, align 8
  store ptr %1, ptr %10, align 8
  store ptr %2, ptr %11, align 8
  store ptr %3, ptr %12, align 8
  %24 = zext i1 %4 to i8
  store i8 %24, ptr %13, align 1
  store i32 %5, ptr %14, align 4
  store ptr %6, ptr %15, align 8
  store ptr %7, ptr %16, align 8
  call void @llvm.lifetime.start.p0(i64 4, ptr %17) #14
  call void @llvm.lifetime.start.p0(i64 1, ptr %18) #14
  call void @llvm.lifetime.start.p0(i64 8, ptr %19) #14
  %25 = load ptr, ptr %10, align 8
  %26 = getelementptr inbounds nuw %struct._packet_info, ptr %25, i32 0, i32 51
  %27 = load ptr, ptr %26, align 8
  %28 = call noalias ptr @wmem_alloc0(ptr noundef %27, i64 noundef 4) #15
  store ptr %28, ptr %19, align 8
  call void @llvm.lifetime.start.p0(i64 4, ptr %20) #14
  %29 = load ptr, ptr %9, align 8
  %30 = load ptr, ptr %11, align 8
  %31 = load ptr, ptr %12, align 8
  %32 = load i8, ptr %13, align 1, !range !8, !noundef !9
  %33 = trunc i8 %32 to i1
  %34 = load i32, ptr %14, align 4
  %35 = call i32 @get_CDR_encap_info(ptr noundef %29, ptr noundef %30, ptr noundef %31, i1 noundef zeroext %33, i32 noundef %34, ptr noundef %18, ptr noundef %17)
  call void @llvm.lifetime.start.p0(i64 8, ptr %21) #14
  store ptr null, ptr %21, align 8
  %36 = load ptr, ptr %9, align 8
  %37 = load ptr, ptr %11, align 8
  %38 = load ptr, ptr %12, align 8
  %39 = load i8, ptr %18, align 1, !range !8, !noundef !9
  %40 = trunc i8 %39 to i1
  %41 = load i32, ptr %17, align 4
  %42 = load i32, ptr @hf_giop_repoid, align 4
  call void @dissect_typecode_string_param(ptr noundef %36, ptr noundef %37, ptr noundef %38, i1 noundef zeroext %40, i32 noundef %41, i32 noundef %42, ptr noundef %21)
  %43 = load ptr, ptr %16, align 8
  %44 = load ptr, ptr %21, align 8
  call void @wmem_list_append(ptr noundef %43, ptr noundef %44)
  %45 = load ptr, ptr %9, align 8
  %46 = load ptr, ptr %11, align 8
  %47 = load ptr, ptr %12, align 8
  %48 = load i8, ptr %18, align 1, !range !8, !noundef !9
  %49 = trunc i8 %48 to i1
  %50 = load i32, ptr %17, align 4
  %51 = load i32, ptr @hf_giop_typecode_name, align 4
  call void @dissect_typecode_string_param(ptr noundef %45, ptr noundef %46, ptr noundef %47, i1 noundef zeroext %49, i32 noundef %50, i32 noundef %51, ptr noundef %21)
  %52 = load ptr, ptr %16, align 8
  %53 = load ptr, ptr %21, align 8
  call void @wmem_list_append(ptr noundef %52, ptr noundef %53)
  %54 = load ptr, ptr %9, align 8
  %55 = load ptr, ptr %12, align 8
  %56 = load i8, ptr %18, align 1, !range !8, !noundef !9
  %57 = trunc i8 %56 to i1
  %58 = load i32, ptr %17, align 4
  %59 = call i32 @get_CDR_ulong(ptr noundef %54, ptr noundef %55, i1 noundef zeroext %57, i32 noundef %58)
  %60 = load ptr, ptr %19, align 8
  store i32 %59, ptr %60, align 4
  %61 = load ptr, ptr %16, align 8
  %62 = load ptr, ptr %19, align 8
  call void @wmem_list_append(ptr noundef %61, ptr noundef %62)
  %63 = load ptr, ptr %11, align 8
  %64 = icmp ne ptr %63, null
  br i1 %64, label %65, label %75

65:                                               ; preds = %8
  %66 = load ptr, ptr %11, align 8
  %67 = load i32, ptr @hf_giop_typecode_count, align 4
  %68 = load ptr, ptr %9, align 8
  %69 = load ptr, ptr %12, align 8
  %70 = load i32, ptr %69, align 4
  %71 = sub i32 %70, 4
  %72 = load ptr, ptr %19, align 8
  %73 = load i32, ptr %72, align 4
  %74 = call ptr @proto_tree_add_uint(ptr noundef %66, i32 noundef %67, ptr noundef %68, i32 noundef %71, i32 noundef 4, i32 noundef %73)
  br label %75

75:                                               ; preds = %65, %8
  store i32 0, ptr %20, align 4
  br label %76

76:                                               ; preds = %114, %75
  %77 = load i32, ptr %20, align 4
  %78 = load ptr, ptr %19, align 8
  %79 = load i32, ptr %78, align 4
  %80 = icmp ult i32 %77, %79
  br i1 %80, label %81, label %117

81:                                               ; preds = %76
  %82 = load ptr, ptr %9, align 8
  %83 = load ptr, ptr %11, align 8
  %84 = load ptr, ptr %12, align 8
  %85 = load i8, ptr %18, align 1, !range !8, !noundef !9
  %86 = trunc i8 %85 to i1
  %87 = load i32, ptr %17, align 4
  %88 = load i32, ptr @hf_giop_typecode_member_name, align 4
  call void @dissect_typecode_string_param(ptr noundef %82, ptr noundef %83, ptr noundef %84, i1 noundef zeroext %86, i32 noundef %87, i32 noundef %88, ptr noundef %21)
  %89 = load ptr, ptr %16, align 8
  %90 = load ptr, ptr %21, align 8
  call void @wmem_list_append(ptr noundef %89, ptr noundef %90)
  call void @llvm.lifetime.start.p0(i64 8, ptr %22) #14
  %91 = load ptr, ptr %10, align 8
  %92 = getelementptr inbounds nuw %struct._packet_info, ptr %91, i32 0, i32 51
  %93 = load ptr, ptr %92, align 8
  %94 = call noalias ptr @wmem_alloc(ptr noundef %93, i64 noundef 4) #15
  store ptr %94, ptr %22, align 8
  call void @llvm.lifetime.start.p0(i64 8, ptr %23) #14
  %95 = load ptr, ptr %10, align 8
  %96 = getelementptr inbounds nuw %struct._packet_info, ptr %95, i32 0, i32 51
  %97 = load ptr, ptr %96, align 8
  %98 = call noalias ptr @wmem_list_new(ptr noundef %97)
  store ptr %98, ptr %23, align 8
  %99 = load ptr, ptr %9, align 8
  %100 = load ptr, ptr %10, align 8
  %101 = load ptr, ptr %11, align 8
  %102 = load ptr, ptr %12, align 8
  %103 = load i8, ptr %18, align 1, !range !8, !noundef !9
  %104 = trunc i8 %103 to i1
  %105 = load i32, ptr %17, align 4
  %106 = load ptr, ptr %15, align 8
  %107 = load ptr, ptr %23, align 8
  %108 = call i32 @get_CDR_typeCode_with_params(ptr noundef %99, ptr noundef %100, ptr noundef %101, ptr noundef %102, i1 noundef zeroext %104, i32 noundef %105, ptr noundef %106, ptr noundef %107)
  %109 = load ptr, ptr %22, align 8
  store i32 %108, ptr %109, align 4
  %110 = load ptr, ptr %16, align 8
  %111 = load ptr, ptr %22, align 8
  call void @wmem_list_append(ptr noundef %110, ptr noundef %111)
  %112 = load ptr, ptr %16, align 8
  %113 = load ptr, ptr %23, align 8
  call void @wmem_list_append(ptr noundef %112, ptr noundef %113)
  call void @llvm.lifetime.end.p0(i64 8, ptr %23) #14
  call void @llvm.lifetime.end.p0(i64 8, ptr %22) #14
  br label %114

114:                                              ; preds = %81
  %115 = load i32, ptr %20, align 4
  %116 = add i32 %115, 1
  store i32 %116, ptr %20, align 4
  br label %76, !llvm.loop !28

117:                                              ; preds = %76
  call void @llvm.lifetime.end.p0(i64 8, ptr %21) #14
  call void @llvm.lifetime.end.p0(i64 4, ptr %20) #14
  call void @llvm.lifetime.end.p0(i64 8, ptr %19) #14
  call void @llvm.lifetime.end.p0(i64 1, ptr %18) #14
  call void @llvm.lifetime.end.p0(i64 4, ptr %17) #14
  ret void
}