; Function Attrs: null_pointer_is_valid sspstrong uwtable
define internal fastcc void @dissect_tk_struct_params(ptr noundef %0, ptr noundef %1, ptr noundef %2, ptr noundef captures(none) %3, i1 noundef zeroext %4, i32 noundef %5, ptr noundef readonly captures(none) %6, ptr noundef %7) unnamed_addr #0 {
  %9 = alloca i32, align 4
  %10 = alloca i8, align 1
  %11 = alloca ptr, align 8
  call void @llvm.lifetime.start.p0(i64 4, ptr nonnull %9) #17
  call void @llvm.lifetime.start.p0(i64 1, ptr nonnull %10) #17
  %12 = getelementptr inbounds nuw i8, ptr %1, i64 408
  %13 = load ptr, ptr %12, align 8
  %14 = tail call noalias dereferenceable_or_null(4) ptr @wmem_alloc0(ptr noundef %13, i64 noundef 4) #18
  %15 = call i32 @get_CDR_encap_info(ptr noundef %0, ptr noundef %2, ptr noundef %3, i1 noundef zeroext %4, i32 noundef %5, ptr noundef nonnull %10, ptr noundef nonnull %9)
  call void @llvm.lifetime.start.p0(i64 8, ptr nonnull %11) #17
  %16 = load i8, ptr %10, align 1, !range !29, !noundef !30
  %17 = trunc nuw i8 %16 to i1
  %18 = load i32, ptr %9, align 4
  %19 = load i32, ptr @hf_giop_repoid, align 4
  call fastcc void @dissect_typecode_string_param(ptr noundef %0, ptr noundef %2, ptr noundef %3, i1 noundef zeroext %17, i32 noundef %18, i32 noundef %19, ptr noundef nonnull %11)
  %20 = load ptr, ptr %11, align 8
  tail call void @wmem_list_append(ptr noundef %7, ptr noundef %20)
  %21 = load i32, ptr @hf_giop_typecode_name, align 4
  call fastcc void @dissect_typecode_string_param(ptr noundef %0, ptr noundef %2, ptr noundef %3, i1 noundef zeroext %17, i32 noundef %18, i32 noundef %21, ptr noundef nonnull %11)
  %22 = load ptr, ptr %11, align 8
  tail call void @wmem_list_append(ptr noundef %7, ptr noundef %22)
  %.promoted.i = load i32, ptr %3, align 4
  %23 = add i32 %.promoted.i, %18
  %24 = and i32 %23, 3
  %.not9.i = icmp eq i32 %24, 0
  br i1 %.not9.i, label %26, label %.lr.ph.preheader.i

.lr.ph.preheader.i:                               ; preds = %8
  %25 = or i32 %23, -4
  %sub = sub i32 %.promoted.i, %25
  store i32 %sub, ptr %3, align 4
  br label %26

26:                                               ; preds = %.lr.ph.preheader.i, %8
  %.lcssa.i = phi i32 [ %sub, %.lr.ph.preheader.i ], [ %.promoted.i, %8 ]
  br i1 %17, label %27, label %29

27:                                               ; preds = %26
  %28 = tail call i32 @tvb_get_ntohl(ptr noundef %0, i32 noundef %.lcssa.i)
  br label %get_CDR_ulong.exit

29:                                               ; preds = %26
  %30 = tail call i32 @tvb_get_letohl(ptr noundef %0, i32 noundef %.lcssa.i)
  br label %get_CDR_ulong.exit

get_CDR_ulong.exit:                               ; preds = %27, %29
  %31 = phi i32 [ %28, %27 ], [ %30, %29 ]
  %32 = load i32, ptr %3, align 4
  %33 = add i32 %32, 4
  store i32 %33, ptr %3, align 4
  store i32 %31, ptr %14, align 4
  tail call void @wmem_list_append(ptr noundef %7, ptr noundef %14)
  %.not = icmp eq ptr %2, null
  br i1 %.not, label %40, label %34

34:                                               ; preds = %get_CDR_ulong.exit
  %35 = load i32, ptr @hf_giop_typecode_count, align 4
  %36 = load i32, ptr %3, align 4
  %37 = add i32 %36, -4
  %38 = load i32, ptr %14, align 4
  %39 = tail call ptr @proto_tree_add_uint(ptr noundef nonnull %2, i32 noundef %35, ptr noundef %0, i32 noundef %37, i32 noundef 4, i32 noundef %38)
  br label %40

40:                                               ; preds = %34, %get_CDR_ulong.exit
  %41 = load i32, ptr %14, align 4
  %.not45 = icmp eq i32 %41, 0
  br i1 %.not45, label %._crit_edge, label %.lr.ph

.lr.ph:                                           ; preds = %40, %.lr.ph
  %.044 = phi i32 [ %49, %.lr.ph ], [ 0, %40 ]
  %42 = load i32, ptr @hf_giop_typecode_member_name, align 4
  call fastcc void @dissect_typecode_string_param(ptr noundef %0, ptr noundef %2, ptr noundef %3, i1 noundef zeroext %17, i32 noundef %18, i32 noundef %42, ptr noundef nonnull %11)
  %43 = load ptr, ptr %11, align 8
  tail call void @wmem_list_append(ptr noundef %7, ptr noundef %43)
  %44 = load ptr, ptr %12, align 8
  %45 = tail call noalias dereferenceable_or_null(4) ptr @wmem_alloc(ptr noundef %44, i64 noundef 4) #18
  %46 = load ptr, ptr %12, align 8
  %47 = tail call noalias ptr @wmem_list_new(ptr noundef %46)
  %48 = tail call fastcc i32 @get_CDR_typeCode_with_params(ptr noundef %0, ptr noundef %1, ptr noundef %2, ptr noundef %3, i1 noundef zeroext %17, i32 noundef %18, ptr noundef %6, ptr noundef %47)
  store i32 %48, ptr %45, align 4
  tail call void @wmem_list_append(ptr noundef %7, ptr noundef %45)
  tail call void @wmem_list_append(ptr noundef %7, ptr noundef %47)
  %49 = add nuw i32 %.044, 1
  %50 = load i32, ptr %14, align 4
  %51 = icmp ult i32 %49, %50
  br i1 %51, label %.lr.ph, label %._crit_edge, !llvm.loop !34

._crit_edge:                                      ; preds = %.lr.ph, %40
  call void @llvm.lifetime.end.p0(i64 8, ptr nonnull %11) #17
  call void @llvm.lifetime.end.p0(i64 1, ptr nonnull %10) #17
  call void @llvm.lifetime.end.p0(i64 4, ptr nonnull %9) #17
  ret void
}